; Function Attrs: mustprogress uwtable
define dso_local void @_ZN22b3CpuRigidBodyPipeline23computeOverlappingPairsEv(ptr nocapture noundef nonnull readonly align 8 dereferenceable(16) %this) unnamed_addr #0 align 2 {
entry:
  %m_data = getelementptr inbounds i8, ptr %this, i64 8
  %0 = load ptr, ptr %m_data, align 8
  %m_bp = getelementptr inbounds i8, ptr %0, i64 96
  %1 = load ptr, ptr %m_bp, align 8
  %vtable = load ptr, ptr %1, align 8
  %vfn = getelementptr inbounds i8, ptr %vtable, i64 64
  %2 = load ptr, ptr %vfn, align 8
  %call = tail call noundef ptr %2(ptr noundef nonnull align 8 dereferenceable(315) %1)
  %vtable2 = load ptr, ptr %call, align 8
  %vfn3 = getelementptr inbounds i8, ptr %vtable2, i64 48
  %3 = load ptr, ptr %vfn3, align 8
  %call4 = tail call noundef i32 %3(ptr noundef nonnull align 8 dereferenceable(8) %call)
  %4 = load ptr, ptr %m_data, align 8
  %m_bp6 = getelementptr inbounds i8, ptr %4, i64 96
  %5 = load ptr, ptr %m_bp6, align 8
  %vtable7 = load ptr, ptr %5, align 8
  %vfn8 = getelementptr inbounds i8, ptr %vtable7, i64 56
  %6 = load ptr, ptr %vfn8, align 8
  tail call void %6(ptr noundef nonnull align 8 dereferenceable(315) %5, ptr noundef null)
  %7 = load ptr, ptr %m_data, align 8
  %m_bp10 = getelementptr inbounds i8, ptr %7, i64 96
  %8 = load ptr, ptr %m_bp10, align 8
  %vtable11 = load ptr, ptr %8, align 8
  %vfn12 = getelementptr inbounds i8, ptr %vtable11, i64 64
  %9 = load ptr, ptr %vfn12, align 8
  %call13 = tail call noundef ptr %9(ptr noundef nonnull align 8 dereferenceable(315) %8)
  %vtable14 = load ptr, ptr %call13, align 8
  %vfn15 = getelementptr inbounds i8, ptr %vtable14, i64 48
  %10 = load ptr, ptr %vfn15, align 8
  %call16 = tail call noundef i32 %10(ptr noundef nonnull align 8 dereferenceable(8) %call13)
  %call17 = tail call i32 (ptr, ...) @printf(ptr noundef nonnull dereferenceable(1) @.str, i32 noundef %call16)
  ret void
}